target datalayout = "e-m:e-p270:32:32-p271:32:32-p272:64:64-i64:64-i128:128-f80:128-n8:16:32:64-S128"
target triple = "x86_64-pc-linux-gnu"

@.str = private unnamed_addr constant [28 x i8] c"../openssl/test/ecdsatest.c\00", align 1
@.str.15 = private unnamed_addr constant [2 x i8] c"0\00", align 1
@.str.17 = private unnamed_addr constant [27 x i8] c"EC_KEY_generate_key(eckey)\00", align 1
@.str.27 = private unnamed_addr constant [2 x i8] c"1\00", align 1
@.str.42 = private unnamed_addr constant [55 x i8] c"eckey = EC_KEY_new_by_curve_name(NID_X9_62_prime256v1)\00", align 1
@.str.43 = private unnamed_addr constant [57 x i8] c"ECDSA_sign(0, dgst, sizeof(dgst), NULL, &siglen0, eckey)\00", align 1
@.str.44 = private unnamed_addr constant [8 x i8] c"siglen0\00", align 1
@.str.45 = private unnamed_addr constant [30 x i8] c"sig = OPENSSL_malloc(siglen0)\00", align 1
@.str.46 = private unnamed_addr constant [55 x i8] c"ECDSA_sign(0, dgst, sizeof(dgst), sig, &siglen, eckey)\00", align 1
@.str.47 = private unnamed_addr constant [7 x i8] c"siglen\00", align 1
@.str.48 = private unnamed_addr constant [56 x i8] c"ECDSA_verify(0, dgst, sizeof(dgst), sig, siglen, eckey)\00", align 1
@.str.49 = private unnamed_addr constant [42 x i8] c"ECDSA_sign_setup(eckey, NULL, &kinv, &rp)\00", align 1
@.str.50 = private unnamed_addr constant [69 x i8] c"ECDSA_sign_ex(0, dgst, sizeof(dgst), NULL, &siglen, kinv, rp, eckey)\00", align 1
@.str.51 = private unnamed_addr constant [69 x i8] c"ECDSA_sign_ex(0, dgst, sizeof(dgst), sig, &siglen0, kinv, rp, eckey)\00", align 1

; Function Attrs: nounwind uwtable
define internal i32 @test_ecdsa_sig_NULL() #0 {
  %1 = alloca i32, align 4
  %2 = alloca i32, align 4
  %3 = alloca i32, align 4
  %4 = alloca [128 x i8], align 16
  %5 = alloca ptr, align 8
  %6 = alloca ptr, align 8
  %7 = alloca ptr, align 8
  %8 = alloca ptr, align 8
  call void @llvm.lifetime.start.p0(i64 4, ptr %1) #4
  call void @llvm.lifetime.start.p0(i64 4, ptr %2) #4
  call void @llvm.lifetime.start.p0(i64 4, ptr %3) #4
  call void @llvm.lifetime.start.p0(i64 128, ptr %4) #4
  call void @llvm.memset.p0.i64(ptr align 16 %4, i8 0, i64 128, i1 false)
  call void @llvm.lifetime.start.p0(i64 8, ptr %5) #4
  store ptr null, ptr %5, align 8, !tbaa !14
  call void @llvm.lifetime.start.p0(i64 8, ptr %6) #4
  store ptr null, ptr %6, align 8, !tbaa !16
  call void @llvm.lifetime.start.p0(i64 8, ptr %7) #4
  store ptr null, ptr %7, align 8, !tbaa !18
  call void @llvm.lifetime.start.p0(i64 8, ptr %8) #4
  store ptr null, ptr %8, align 8, !tbaa !18
  %9 = call ptr @EC_KEY_new_by_curve_name(i32 noundef 415)
  store ptr %9, ptr %5, align 8, !tbaa !14
  %10 = call i32 @test_ptr(ptr noundef @.str, i32 noundef 360, ptr noundef @.str.42, ptr noundef %9)
  %11 = icmp ne i32 %10, 0
  br i1 %11, label %12, label %101

12:                                               ; preds = %0
  %13 = load ptr, ptr %5, align 8, !tbaa !14
  %14 = call i32 @EC_KEY_generate_key(ptr noundef %13)
  %15 = call i32 @test_int_eq(ptr noundef @.str, i32 noundef 361, ptr noundef @.str.17, ptr noundef @.str.27, i32 noundef %14, i32 noundef 1)
  %16 = icmp ne i32 %15, 0
  br i1 %16, label %17, label %101

17:                                               ; preds = %12
  %18 = getelementptr inbounds [128 x i8], ptr %4, i64 0, i64 0
  %19 = load ptr, ptr %5, align 8, !tbaa !14
  %20 = call i32 @ECDSA_sign(i32 noundef 0, ptr noundef %18, i32 noundef 128, ptr noundef null, ptr noundef %2, ptr noundef %19)
  %21 = call i32 @test_int_eq(ptr noundef @.str, i32 noundef 363, ptr noundef @.str.43, ptr noundef @.str.27, i32 noundef %20, i32 noundef 1)
  %22 = icmp ne i32 %21, 0
  br i1 %22, label %23, label %101

23:                                               ; preds = %17
  %24 = load i32, ptr %2, align 4, !tbaa !12
  %25 = call i32 @test_int_gt(ptr noundef @.str, i32 noundef 364, ptr noundef @.str.44, ptr noundef @.str.15, i32 noundef %24, i32 noundef 0)
  %26 = icmp ne i32 %25, 0
  br i1 %26, label %27, label %101

27:                                               ; preds = %23
  %28 = load i32, ptr %2, align 4, !tbaa !12
  %29 = zext i32 %28 to i64
  %30 = call noalias ptr @CRYPTO_malloc(i64 noundef %29, ptr noundef @.str, i32 noundef 365)
  store ptr %30, ptr %6, align 8, !tbaa !16
  %31 = call i32 @test_ptr(ptr noundef @.str, i32 noundef 365, ptr noundef @.str.45, ptr noundef %30)
  %32 = icmp ne i32 %31, 0
  br i1 %32, label %33, label %101

33:                                               ; preds = %27
  %34 = getelementptr inbounds [128 x i8], ptr %4, i64 0, i64 0
  %35 = load ptr, ptr %6, align 8, !tbaa !16
  %36 = load ptr, ptr %5, align 8, !tbaa !14
  %37 = call i32 @ECDSA_sign(i32 noundef 0, ptr noundef %34, i32 noundef 128, ptr noundef %35, ptr noundef %3, ptr noundef %36)
  %38 = call i32 @test_int_eq(ptr noundef @.str, i32 noundef 367, ptr noundef @.str.46, ptr noundef @.str.27, i32 noundef %37, i32 noundef 1)
  %39 = icmp ne i32 %38, 0
  br i1 %39, label %40, label %101

40:                                               ; preds = %33
  %41 = load i32, ptr %3, align 4, !tbaa !12
  %42 = call i32 @test_int_gt(ptr noundef @.str, i32 noundef 368, ptr noundef @.str.47, ptr noundef @.str.15, i32 noundef %41, i32 noundef 0)
  %43 = icmp ne i32 %42, 0
  br i1 %43, label %44, label %101

44:                                               ; preds = %40
  %45 = load i32, ptr %3, align 4, !tbaa !12
  %46 = load i32, ptr %2, align 4, !tbaa !12
  %47 = call i32 @test_int_le(ptr noundef @.str, i32 noundef 369, ptr noundef @.str.47, ptr noundef @.str.44, i32 noundef %45, i32 noundef %46)
  %48 = icmp ne i32 %47, 0
  br i1 %48, label %49, label %101

49:                                               ; preds = %44
  %50 = getelementptr inbounds [128 x i8], ptr %4, i64 0, i64 0
  %51 = load ptr, ptr %6, align 8, !tbaa !16
  %52 = load i32, ptr %3, align 4, !tbaa !12
  %53 = load ptr, ptr %5, align 8, !tbaa !14
  %54 = call i32 @ECDSA_verify(i32 noundef 0, ptr noundef %50, i32 noundef 128, ptr noundef %51, i32 noundef %52, ptr noundef %53)
  %55 = call i32 @test_int_eq(ptr noundef @.str, i32 noundef 371, ptr noundef @.str.48, ptr noundef @.str.27, i32 noundef %54, i32 noundef 1)
  %56 = icmp ne i32 %55, 0
  br i1 %56, label %57, label %101

57:                                               ; preds = %49
  %58 = load ptr, ptr %5, align 8, !tbaa !14
  %59 = call i32 @ECDSA_sign_setup(ptr noundef %58, ptr noundef null, ptr noundef %7, ptr noundef %8)
  %60 = call i32 @test_int_eq(ptr noundef @.str, i32 noundef 372, ptr noundef @.str.49, ptr noundef @.str.27, i32 noundef %59, i32 noundef 1)
  %61 = icmp ne i32 %60, 0
  br i1 %61, label %62, label %101

62:                                               ; preds = %57
  %63 = getelementptr inbounds [128 x i8], ptr %4, i64 0, i64 0
  %64 = load ptr, ptr %7, align 8, !tbaa !18
  %65 = load ptr, ptr %8, align 8, !tbaa !18
  %66 = load ptr, ptr %5, align 8, !tbaa !14
  %67 = call i32 @ECDSA_sign_ex(i32 noundef 0, ptr noundef %63, i32 noundef 128, ptr noundef null, ptr noundef %3, ptr noundef %64, ptr noundef %65, ptr noundef %66)
  %68 = call i32 @test_int_eq(ptr noundef @.str, i32 noundef 374, ptr noundef @.str.50, ptr noundef @.str.27, i32 noundef %67, i32 noundef 1)
  %69 = icmp ne i32 %68, 0
  br i1 %69, label %70, label %101

70:                                               ; preds = %62
  %71 = load i32, ptr %3, align 4, !tbaa !12
  %72 = call i32 @test_int_gt(ptr noundef @.str, i32 noundef 375, ptr noundef @.str.47, ptr noundef @.str.15, i32 noundef %71, i32 noundef 0)
  %73 = icmp ne i32 %72, 0
  br i1 %73, label %74, label %101

74:                                               ; preds = %70
  %75 = load i32, ptr %3, align 4, !tbaa !12
  %76 = load i32, ptr %2, align 4, !tbaa !12
  %77 = call i32 @test_int_le(ptr noundef @.str, i32 noundef 376, ptr noundef @.str.47, ptr noundef @.str.44, i32 noundef %75, i32 noundef %76)
  %78 = icmp ne i32 %77, 0
  br i1 %78, label %79, label %101

79:                                               ; preds = %74
  %80 = getelementptr inbounds [128 x i8], ptr %4, i64 0, i64 0
  %81 = load ptr, ptr %6, align 8, !tbaa !16
  %82 = load ptr, ptr %7, align 8, !tbaa !18
  %83 = load ptr, ptr %8, align 8, !tbaa !18
  %84 = load ptr, ptr %5, align 8, !tbaa !14
  %85 = call i32 @ECDSA_sign_ex(i32 noundef 0, ptr noundef %80, i32 noundef 128, ptr noundef %81, ptr noundef %2, ptr noundef %82, ptr noundef %83, ptr noundef %84)
  %86 = call i32 @test_int_eq(ptr noundef @.str, i32 noundef 378, ptr noundef @.str.51, ptr noundef @.str.27, i32 noundef %85, i32 noundef 1)
  %87 = icmp ne i32 %86, 0
  br i1 %87, label %88, label %101

88:                                               ; preds = %79
  %89 = load i32, ptr %3, align 4, !tbaa !12
  %90 = load i32, ptr %2, align 4, !tbaa !12
  %91 = call i32 @test_int_eq(ptr noundef @.str, i32 noundef 379, ptr noundef @.str.47, ptr noundef @.str.44, i32 noundef %89, i32 noundef %90)
  %92 = icmp ne i32 %91, 0
  br i1 %92, label %93, label %101

93:                                               ; preds = %88
  %94 = getelementptr inbounds [128 x i8], ptr %4, i64 0, i64 0
  %95 = load ptr, ptr %6, align 8, !tbaa !16
  %96 = load i32, ptr %3, align 4, !tbaa !12
  %97 = load ptr, ptr %5, align 8, !tbaa !14
  %98 = call i32 @ECDSA_verify(i32 noundef 0, ptr noundef %94, i32 noundef 128, ptr noundef %95, i32 noundef %96, ptr noundef %97)
  %99 = call i32 @test_int_eq(ptr noundef @.str, i32 noundef 381, ptr noundef @.str.48, ptr noundef @.str.27, i32 noundef %98, i32 noundef 1)
  %100 = icmp ne i32 %99, 0
  br label %101

101:                                              ; preds = %93, %88, %79, %74, %70, %62, %57, %49, %44, %40, %33, %27, %23, %17, %12, %0
  %102 = phi i1 [ false, %88 ], [ false, %79 ], [ false, %74 ], [ false, %70 ], [ false, %62 ], [ false, %57 ], [ false, %49 ], [ false, %44 ], [ false, %40 ], [ false, %33 ], [ false, %27 ], [ false, %23 ], [ false, %17 ], [ false, %12 ], [ false, %0 ], [ %100, %93 ]
  %103 = zext i1 %102 to i32
  store i32 %103, ptr %1, align 4, !tbaa !12
  %104 = load ptr, ptr %5, align 8, !tbaa !14
  call void @EC_KEY_free(ptr noundef %104)
  %105 = load ptr, ptr %6, align 8, !tbaa !16
  call void @CRYPTO_free(ptr noundef %105, ptr noundef @.str, i32 noundef 383)
  %106 = load ptr, ptr %7, align 8, !tbaa !18
  call void @BN_free(ptr noundef %106)
  %107 = load ptr, ptr %8, align 8, !tbaa !18
  call void @BN_free(ptr noundef %107)
  %108 = load i32, ptr %1, align 4, !tbaa !12
  call void @llvm.lifetime.end.p0(i64 8, ptr %8) #4
  call void @llvm.lifetime.end.p0(i64 8, ptr %7) #4
  call void @llvm.lifetime.end.p0(i64 8, ptr %6) #4
  call void @llvm.lifetime.end.p0(i64 8, ptr %5) #4
  call void @llvm.lifetime.end.p0(i64 128, ptr %4) #4
  call void @llvm.lifetime.end.p0(i64 4, ptr %3) #4
  call void @llvm.lifetime.end.p0(i64 4, ptr %2) #4
  call void @llvm.lifetime.end.p0(i64 4, ptr %1) #4
  ret i32 %108
}