; Function Attrs: nounwind uwtable
define internal range(i32 0, 2) i32 @test_ecdsa_sig_NULL() #0 {
  %1 = alloca i32, align 4
  %2 = alloca i32, align 4
  %3 = alloca [128 x i8], align 16
  %4 = alloca ptr, align 8
  %5 = alloca ptr, align 8
  call void @llvm.lifetime.start.p0(i64 4, ptr nonnull %1) #5
  call void @llvm.lifetime.start.p0(i64 4, ptr nonnull %2) #5
  call void @llvm.lifetime.start.p0(i64 128, ptr nonnull %3) #5
  call void @llvm.memset.p0.i64(ptr noundef nonnull align 16 dereferenceable(128) %3, i8 0, i64 128, i1 false)
  call void @llvm.lifetime.start.p0(i64 8, ptr nonnull %4) #5
  store ptr null, ptr %4, align 8, !tbaa !12
  call void @llvm.lifetime.start.p0(i64 8, ptr nonnull %5) #5
  store ptr null, ptr %5, align 8, !tbaa !12
  %6 = tail call ptr @EC_KEY_new_by_curve_name(i32 noundef 415) #5
  %7 = tail call i32 @test_ptr(ptr noundef nonnull @.str, i32 noundef 360, ptr noundef nonnull @.str.42, ptr noundef %6) #5
  %.not = icmp eq i32 %7, 0
  br i1 %.not, label %66, label %8

8:                                                ; preds = %0
  %9 = tail call i32 @EC_KEY_generate_key(ptr noundef %6) #5
  %10 = tail call i32 @test_int_eq(ptr noundef nonnull @.str, i32 noundef 361, ptr noundef nonnull @.str.17, ptr noundef nonnull @.str.27, i32 noundef %9, i32 noundef 1) #5
  %.not14 = icmp eq i32 %10, 0
  br i1 %.not14, label %66, label %11

11:                                               ; preds = %8
  %12 = call i32 @ECDSA_sign(i32 noundef 0, ptr noundef nonnull %3, i32 noundef 128, ptr noundef null, ptr noundef nonnull %1, ptr noundef %6) #5
  %13 = call i32 @test_int_eq(ptr noundef nonnull @.str, i32 noundef 363, ptr noundef nonnull @.str.43, ptr noundef nonnull @.str.27, i32 noundef %12, i32 noundef 1) #5
  %.not15 = icmp eq i32 %13, 0
  br i1 %.not15, label %66, label %14

14:                                               ; preds = %11
  %15 = load i32, ptr %1, align 4, !tbaa !14
  %16 = call i32 @test_int_gt(ptr noundef nonnull @.str, i32 noundef 364, ptr noundef nonnull @.str.44, ptr noundef nonnull @.str.15, i32 noundef %15, i32 noundef 0) #5
  %.not16 = icmp eq i32 %16, 0
  br i1 %.not16, label %66, label %17

17:                                               ; preds = %14
  %18 = load i32, ptr %1, align 4, !tbaa !14
  %19 = zext i32 %18 to i64
  %20 = call noalias ptr @CRYPTO_malloc(i64 noundef %19, ptr noundef nonnull @.str, i32 noundef 365) #5
  %21 = call i32 @test_ptr(ptr noundef nonnull @.str, i32 noundef 365, ptr noundef nonnull @.str.45, ptr noundef %20) #5
  %.not17 = icmp eq i32 %21, 0
  br i1 %.not17, label %66, label %22

22:                                               ; preds = %17
  %23 = call i32 @ECDSA_sign(i32 noundef 0, ptr noundef nonnull %3, i32 noundef 128, ptr noundef %20, ptr noundef nonnull %2, ptr noundef %6) #5
  %24 = call i32 @test_int_eq(ptr noundef nonnull @.str, i32 noundef 367, ptr noundef nonnull @.str.46, ptr noundef nonnull @.str.27, i32 noundef %23, i32 noundef 1) #5
  %.not18 = icmp eq i32 %24, 0
  br i1 %.not18, label %66, label %25

25:                                               ; preds = %22
  %26 = load i32, ptr %2, align 4, !tbaa !14
  %27 = call i32 @test_int_gt(ptr noundef nonnull @.str, i32 noundef 368, ptr noundef nonnull @.str.47, ptr noundef nonnull @.str.15, i32 noundef %26, i32 noundef 0) #5
  %.not19 = icmp eq i32 %27, 0
  br i1 %.not19, label %66, label %28

28:                                               ; preds = %25
  %29 = load i32, ptr %2, align 4, !tbaa !14
  %30 = load i32, ptr %1, align 4, !tbaa !14
  %31 = call i32 @test_int_le(ptr noundef nonnull @.str, i32 noundef 369, ptr noundef nonnull @.str.47, ptr noundef nonnull @.str.44, i32 noundef %29, i32 noundef %30) #5
  %.not20 = icmp eq i32 %31, 0
  br i1 %.not20, label %66, label %32

32:                                               ; preds = %28
  %33 = load i32, ptr %2, align 4, !tbaa !14
  %34 = call i32 @ECDSA_verify(i32 noundef 0, ptr noundef nonnull %3, i32 noundef 128, ptr noundef %20, i32 noundef %33, ptr noundef %6) #5
  %35 = call i32 @test_int_eq(ptr noundef nonnull @.str, i32 noundef 371, ptr noundef nonnull @.str.48, ptr noundef nonnull @.str.27, i32 noundef %34, i32 noundef 1) #5
  %.not21 = icmp eq i32 %35, 0
  br i1 %.not21, label %66, label %36

36:                                               ; preds = %32
  %37 = call i32 @ECDSA_sign_setup(ptr noundef %6, ptr noundef null, ptr noundef nonnull %4, ptr noundef nonnull %5) #5
  %38 = call i32 @test_int_eq(ptr noundef nonnull @.str, i32 noundef 372, ptr noundef nonnull @.str.49, ptr noundef nonnull @.str.27, i32 noundef %37, i32 noundef 1) #5
  %.not22 = icmp eq i32 %38, 0
  br i1 %.not22, label %66, label %39

39:                                               ; preds = %36
  %40 = load ptr, ptr %4, align 8, !tbaa !12
  %41 = load ptr, ptr %5, align 8, !tbaa !12
  %42 = call i32 @ECDSA_sign_ex(i32 noundef 0, ptr noundef nonnull %3, i32 noundef 128, ptr noundef null, ptr noundef nonnull %2, ptr noundef %40, ptr noundef %41, ptr noundef %6) #5
  %43 = call i32 @test_int_eq(ptr noundef nonnull @.str, i32 noundef 374, ptr noundef nonnull @.str.50, ptr noundef nonnull @.str.27, i32 noundef %42, i32 noundef 1) #5
  %.not23 = icmp eq i32 %43, 0
  br i1 %.not23, label %66, label %44

44:                                               ; preds = %39
  %45 = load i32, ptr %2, align 4, !tbaa !14
  %46 = call i32 @test_int_gt(ptr noundef nonnull @.str, i32 noundef 375, ptr noundef nonnull @.str.47, ptr noundef nonnull @.str.15, i32 noundef %45, i32 noundef 0) #5
  %.not24 = icmp eq i32 %46, 0
  br i1 %.not24, label %66, label %47

47:                                               ; preds = %44
  %48 = load i32, ptr %2, align 4, !tbaa !14
  %49 = load i32, ptr %1, align 4, !tbaa !14
  %50 = call i32 @test_int_le(ptr noundef nonnull @.str, i32 noundef 376, ptr noundef nonnull @.str.47, ptr noundef nonnull @.str.44, i32 noundef %48, i32 noundef %49) #5
  %.not25 = icmp eq i32 %50, 0
  br i1 %.not25, label %66, label %51

51:                                               ; preds = %47
  %52 = load ptr, ptr %4, align 8, !tbaa !12
  %53 = load ptr, ptr %5, align 8, !tbaa !12
  %54 = call i32 @ECDSA_sign_ex(i32 noundef 0, ptr noundef nonnull %3, i32 noundef 128, ptr noundef %20, ptr noundef nonnull %1, ptr noundef %52, ptr noundef %53, ptr noundef %6) #5
  %55 = call i32 @test_int_eq(ptr noundef nonnull @.str, i32 noundef 378, ptr noundef nonnull @.str.51, ptr noundef nonnull @.str.27, i32 noundef %54, i32 noundef 1) #5
  %.not26 = icmp eq i32 %55, 0
  br i1 %.not26, label %66, label %56

56:                                               ; preds = %51
  %57 = load i32, ptr %2, align 4, !tbaa !14
  %58 = load i32, ptr %1, align 4, !tbaa !14
  %59 = call i32 @test_int_eq(ptr noundef nonnull @.str, i32 noundef 379, ptr noundef nonnull @.str.47, ptr noundef nonnull @.str.44, i32 noundef %57, i32 noundef %58) #5
  %.not27 = icmp eq i32 %59, 0
  br i1 %.not27, label %66, label %60

60:                                               ; preds = %56
  %61 = load i32, ptr %2, align 4, !tbaa !14
  %62 = call i32 @ECDSA_verify(i32 noundef 0, ptr noundef nonnull %3, i32 noundef 128, ptr noundef %20, i32 noundef %61, ptr noundef %6) #5
  %63 = call i32 @test_int_eq(ptr noundef nonnull @.str, i32 noundef 381, ptr noundef nonnull @.str.48, ptr noundef nonnull @.str.27, i32 noundef %62, i32 noundef 1) #5
  %64 = icmp ne i32 %63, 0
  %65 = zext i1 %64 to i32
  br label %66

66:                                               ; preds = %60, %56, %51, %47, %44, %39, %36, %32, %28, %25, %22, %17, %14, %11, %8, %0
  %.0 = phi ptr [ %20, %60 ], [ %20, %56 ], [ %20, %51 ], [ %20, %47 ], [ %20, %44 ], [ %20, %39 ], [ %20, %36 ], [ %20, %32 ], [ %20, %28 ], [ %20, %25 ], [ %20, %22 ], [ %20, %17 ], [ null, %14 ], [ null, %11 ], [ null, %8 ], [ null, %0 ]
  %67 = phi i32 [ %65, %60 ], [ 0, %56 ], [ 0, %51 ], [ 0, %47 ], [ 0, %44 ], [ 0, %39 ], [ 0, %36 ], [ 0, %32 ], [ 0, %28 ], [ 0, %25 ], [ 0, %22 ], [ 0, %17 ], [ 0, %14 ], [ 0, %11 ], [ 0, %8 ], [ 0, %0 ]
  call void @EC_KEY_free(ptr noundef %6) #5
  call void @CRYPTO_free(ptr noundef %.0, ptr noundef nonnull @.str, i32 noundef 383) #5
  %68 = load ptr, ptr %4, align 8, !tbaa !12
  call void @BN_free(ptr noundef %68) #5
  %69 = load ptr, ptr %5, align 8, !tbaa !12
  call void @BN_free(ptr noundef %69) #5
  call void @llvm.lifetime.end.p0(i64 8, ptr nonnull %5) #5
  call void @llvm.lifetime.end.p0(i64 8, ptr nonnull %4) #5
  call void @llvm.lifetime.end.p0(i64 128, ptr nonnull %3) #5
  call void @llvm.lifetime.end.p0(i64 4, ptr nonnull %2) #5
  call void @llvm.lifetime.end.p0(i64 4, ptr nonnull %1) #5
  ret i32 %67
}